ccopy_reg
_reconstructor
p0
(csklearn.linear_model.logistic
LogisticRegression
p1
c__builtin__
object
p2
Ntp3
Rp4
(dp5
S'warm_start'
p6
I00
sS'C'
p7
F1.0
sS'n_jobs'
p8
NsS'verbose'
p9
I0
sS'fit_intercept'
p10
I01
sS'max_iter'
p11
I100
sS'intercept_scaling'
p12
I1
sS'penalty'
p13
S'l2'
p14
sS'multi_class'
p15
S'warn'
p16
sS'random_state'
p17
I420
sS'_sklearn_version'
p18
S'0.20.2'
p19
sS'dual'
p20
I00
sS'tol'
p21
F0.0001
sS'solver'
p22
S'liblinear'
p23
sS'class_weight'
p24
Nsb.